target datalayout = "e-m:e-p270:32:32-p271:32:32-p272:64:64-i64:64-i128:128-f80:128-n8:16:32:64-S128"
target triple = "x86_64-pc-linux-gnu"

%"struct.google::CheckOpString" = type { ptr }
%"class.google::LogMessageFatal" = type { %"class.google::LogMessage" }
%"class.google::LogMessage" = type { ptr, ptr, %"struct.google::LogMessageTime" }
%"struct.google::LogMessageTime" = type { %struct.tm, i64, i32, i64 }
%struct.tm = type { i32, i32, i32, i32, i32, i32, i32, i32, i32, i64, ptr }
%"class.ceres::internal::CudaVector" = type { i32, ptr, %"class.ceres::internal::CudaBuffer", ptr }
%"class.ceres::internal::CudaBuffer" = type { ptr, i64, ptr }
%"class.google::base::CheckOpMessageBuilder" = type { ptr }

@.str.3 = private unnamed_addr constant [126 x i8] c"generated/home/dtcxzyw/WorkSpace/Projects/compilers/llvm-opt-benchmark/bench/ceres/ceres-solver/internal/ceres/cuda_vector.cc\00", align 1
@.str.6 = private unnamed_addr constant [93 x i8] c"cusparseCreateDnVec(&descr_, num_rows_, data_.data(), CUDA_R_64F) == CUSPARSE_STATUS_SUCCESS\00", align 1

; Function Attrs: mustprogress uwtable
define linkonce_odr hidden void @_ZN6google22MakeCheckOpValueStringI16cusparseStatus_tEEvPSoRKT_(ptr noundef %0, ptr noundef nonnull align 4 dereferenceable(4) %1) #2 comdat {
  %3 = alloca ptr, align 8
  %4 = alloca ptr, align 8
  store ptr %0, ptr %3, align 8
  store ptr %1, ptr %4, align 8
  %5 = load ptr, ptr %3, align 8
  %6 = load ptr, ptr %4, align 8
  %7 = load i32, ptr %6, align 4
  %8 = call noundef nonnull align 8 dereferenceable(8) ptr @_ZNSolsEi(ptr noundef nonnull align 8 dereferenceable(8) %5, i32 noundef %7)
  ret void
}

; Function Attrs: mustprogress nounwind uwtable
define linkonce_odr hidden noundef ptr @_ZN6google4base21CheckOpMessageBuilder7ForVar1Ev(ptr noundef nonnull align 8 dereferenceable(8) %0) #1 comdat align 2 {
  %2 = alloca ptr, align 8
  store ptr %0, ptr %2, align 8
  %3 = load ptr, ptr %2, align 8
  %4 = getelementptr inbounds %"class.google::base::CheckOpMessageBuilder", ptr %3, i32 0, i32 0
  %5 = load ptr, ptr %4, align 8
  ret ptr %5
}

; Function Attrs: mustprogress uwtable
define linkonce_odr hidden noundef ptr @_ZN6google17MakeCheckOpStringI16cusparseStatus_tS1_EEPNSt7__cxx1112basic_stringIcSt11char_traitsIcESaIcEEERKT_RKT0_PKc(ptr noundef nonnull align 4 dereferenceable(4) %0, ptr noundef nonnull align 4 dereferenceable(4) %1, ptr noundef %2) #2 comdat personality ptr @__gxx_personality_v0 {
  %4 = alloca ptr, align 8
  %5 = alloca ptr, align 8
  %6 = alloca ptr, align 8
  %7 = alloca %"class.google::base::CheckOpMessageBuilder", align 8
  %8 = alloca ptr, align 8
  %9 = alloca i32, align 4
  store ptr %0, ptr %4, align 8
  store ptr %1, ptr %5, align 8
  store ptr %2, ptr %6, align 8
  %10 = load ptr, ptr %6, align 8
  call void @_ZN6google4base21CheckOpMessageBuilderC1EPKc(ptr noundef nonnull align 8 dereferenceable(8) %7, ptr noundef %10)
  %11 = call noundef ptr @_ZN6google4base21CheckOpMessageBuilder7ForVar1Ev(ptr noundef nonnull align 8 dereferenceable(8) %7)
  %12 = load ptr, ptr %4, align 8
  invoke void @_ZN6google22MakeCheckOpValueStringI16cusparseStatus_tEEvPSoRKT_(ptr noundef %11, ptr noundef nonnull align 4 dereferenceable(4) %12)
          to label %13 unwind label %20

13:                                               ; preds = %3
  %14 = invoke noundef ptr @_ZN6google4base21CheckOpMessageBuilder7ForVar2Ev(ptr noundef nonnull align 8 dereferenceable(8) %7)
          to label %15 unwind label %20

15:                                               ; preds = %13
  %16 = load ptr, ptr %5, align 8
  invoke void @_ZN6google22MakeCheckOpValueStringI16cusparseStatus_tEEvPSoRKT_(ptr noundef %14, ptr noundef nonnull align 4 dereferenceable(4) %16)
          to label %17 unwind label %20

17:                                               ; preds = %15
  %18 = invoke noundef ptr @_ZN6google4base21CheckOpMessageBuilder9NewStringB5cxx11Ev(ptr noundef nonnull align 8 dereferenceable(8) %7)
          to label %19 unwind label %20

19:                                               ; preds = %17
  call void @_ZN6google4base21CheckOpMessageBuilderD1Ev(ptr noundef nonnull align 8 dereferenceable(8) %7) #9
  ret ptr %18

20:                                               ; preds = %17, %15, %13, %3
  %21 = landingpad { ptr, i32 }
          cleanup
  %22 = extractvalue { ptr, i32 } %21, 0
  store ptr %22, ptr %8, align 8
  %23 = extractvalue { ptr, i32 } %21, 1
  store i32 %23, ptr %9, align 4
  call void @_ZN6google4base21CheckOpMessageBuilderD1Ev(ptr noundef nonnull align 8 dereferenceable(8) %7) #9
  br label %24

24:                                               ; preds = %20
  %25 = load ptr, ptr %8, align 8
  %26 = load i32, ptr %9, align 4
  %27 = insertvalue { ptr, i32 } poison, ptr %25, 0
  %28 = insertvalue { ptr, i32 } %27, i32 %26, 1
  resume { ptr, i32 } %28
}

; Function Attrs: mustprogress nounwind uwtable
define linkonce_odr hidden noundef zeroext i1 @_ZNK6google13CheckOpStringcvbEv(ptr noundef nonnull align 8 dereferenceable(8) %0) #1 comdat align 2 {
  %2 = alloca ptr, align 8
  store ptr %0, ptr %2, align 8
  %3 = load ptr, ptr %2, align 8
  %4 = getelementptr inbounds %"struct.google::CheckOpString", ptr %3, i32 0, i32 0
  %5 = load ptr, ptr %4, align 8
  %6 = icmp ne ptr %5, null
  ret i1 %6
}

; Function Attrs: mustprogress nounwind uwtable
define linkonce_odr hidden void @_ZN6google13CheckOpStringC2EPNSt7__cxx1112basic_stringIcSt11char_traitsIcESaIcEEE(ptr noundef nonnull align 8 dereferenceable(8) %0, ptr noundef %1) unnamed_addr #1 comdat align 2 {
  %3 = alloca ptr, align 8
  %4 = alloca ptr, align 8
  store ptr %0, ptr %3, align 8
  store ptr %1, ptr %4, align 8
  %5 = load ptr, ptr %3, align 8
  %6 = getelementptr inbounds %"struct.google::CheckOpString", ptr %5, i32 0, i32 0
  %7 = load ptr, ptr %4, align 8
  store ptr %7, ptr %6, align 8
  ret void
}

; Function Attrs: mustprogress uwtable
define linkonce_odr hidden noundef ptr @_ZN6google12Check_EQImplI16cusparseStatus_tS1_EEPNSt7__cxx1112basic_stringIcSt11char_traitsIcESaIcEEERKT_RKT0_PKc(ptr noundef nonnull align 4 dereferenceable(4) %0, ptr noundef nonnull align 4 dereferenceable(4) %1, ptr noundef %2) #2 comdat {
  %4 = alloca ptr, align 8
  %5 = alloca ptr, align 8
  %6 = alloca ptr, align 8
  %7 = alloca ptr, align 8
  store ptr %0, ptr %5, align 8
  store ptr %1, ptr %6, align 8
  store ptr %2, ptr %7, align 8
  %8 = load ptr, ptr %5, align 8
  %9 = load i32, ptr %8, align 4
  %10 = load ptr, ptr %6, align 8
  %11 = load i32, ptr %10, align 4
  %12 = icmp eq i32 %9, %11
  %13 = xor i1 %12, true
  %14 = xor i1 %13, true
  br i1 %14, label %15, label %16

15:                                               ; preds = %3
  store ptr null, ptr %4, align 8
  br label %21

16:                                               ; preds = %3
  %17 = load ptr, ptr %5, align 8
  %18 = load ptr, ptr %6, align 8
  %19 = load ptr, ptr %7, align 8
  %20 = call noundef ptr @_ZN6google17MakeCheckOpStringI16cusparseStatus_tS1_EEPNSt7__cxx1112basic_stringIcSt11char_traitsIcESaIcEEERKT_RKT0_PKc(ptr noundef nonnull align 4 dereferenceable(4) %17, ptr noundef nonnull align 4 dereferenceable(4) %18, ptr noundef %19)
  store ptr %20, ptr %4, align 8
  br label %21

21:                                               ; preds = %16, %15
  %22 = load ptr, ptr %4, align 8
  ret ptr %22
}

; Function Attrs: mustprogress nounwind uwtable
define linkonce_odr hidden noundef nonnull align 4 dereferenceable(4) ptr @_ZN6google21GetReferenceableValueI16cusparseStatus_tEERKT_S4_(ptr noundef nonnull align 4 dereferenceable(4) %0) #1 comdat {
  %2 = alloca ptr, align 8
  store ptr %0, ptr %2, align 8
  %3 = load ptr, ptr %2, align 8
  ret ptr %3
}

; Function Attrs: mustprogress nounwind uwtable
define linkonce_odr hidden noundef ptr @_ZN5ceres8internal10CudaBufferIdE4dataEv(ptr noundef nonnull align 8 dereferenceable(24) %0) #1 comdat align 2 {
  %2 = alloca ptr, align 8
  store ptr %0, ptr %2, align 8
  %3 = load ptr, ptr %2, align 8
  %4 = getelementptr inbounds %"class.ceres::internal::CudaBuffer", ptr %3, i32 0, i32 0
  %5 = load ptr, ptr %4, align 8
  ret ptr %5
}

; Function Attrs: mustprogress uwtable
define hidden void @_ZN5ceres8internal10CudaVector6ResizeEi(ptr noundef nonnull align 8 dereferenceable(48) %0, i32 noundef %1) #2 align 2 personality ptr @__gxx_personality_v0 {
  %3 = alloca ptr, align 8
  %4 = alloca i32, align 4
  %5 = alloca %"struct.google::CheckOpString", align 8
  %6 = alloca i32, align 4
  %7 = alloca i32, align 4
  %8 = alloca %"class.google::LogMessageFatal", align 8
  %9 = alloca ptr, align 8
  %10 = alloca i32, align 4
  store ptr %0, ptr %3, align 8
  store i32 %1, ptr %4, align 4
  %11 = load ptr, ptr %3, align 8
  %12 = getelementptr inbounds %"class.ceres::internal::CudaVector", ptr %11, i32 0, i32 2
  %13 = load i32, ptr %4, align 4
  %14 = sext i32 %13 to i64
  call void @_ZN5ceres8internal10CudaBufferIdE7ReserveEm(ptr noundef nonnull align 8 dereferenceable(24) %12, i64 noundef %14)
  %15 = load i32, ptr %4, align 4
  %16 = getelementptr inbounds %"class.ceres::internal::CudaVector", ptr %11, i32 0, i32 0
  store i32 %15, ptr %16, align 8
  call void @_ZN5ceres8internal10CudaVector17DestroyDescriptorEv(ptr noundef nonnull align 8 dereferenceable(48) %11)
  br label %17

17:                                               ; preds = %2
  %18 = getelementptr inbounds %"class.ceres::internal::CudaVector", ptr %11, i32 0, i32 3
  %19 = getelementptr inbounds %"class.ceres::internal::CudaVector", ptr %11, i32 0, i32 0
  %20 = load i32, ptr %19, align 8
  %21 = sext i32 %20 to i64
  %22 = getelementptr inbounds %"class.ceres::internal::CudaVector", ptr %11, i32 0, i32 2
  %23 = call noundef ptr @_ZN5ceres8internal10CudaBufferIdE4dataEv(ptr noundef nonnull align 8 dereferenceable(24) %22)
  %24 = call i32 @cusparseCreateDnVec(ptr noundef %18, i64 noundef %21, ptr noundef %23, i32 noundef 1)
  store i32 %24, ptr %6, align 4
  %25 = call noundef nonnull align 4 dereferenceable(4) ptr @_ZN6google21GetReferenceableValueI16cusparseStatus_tEERKT_S4_(ptr noundef nonnull align 4 dereferenceable(4) %6)
  store i32 0, ptr %7, align 4
  %26 = call noundef nonnull align 4 dereferenceable(4) ptr @_ZN6google21GetReferenceableValueI16cusparseStatus_tEERKT_S4_(ptr noundef nonnull align 4 dereferenceable(4) %7)
  %27 = call noundef ptr @_ZN6google12Check_EQImplI16cusparseStatus_tS1_EEPNSt7__cxx1112basic_stringIcSt11char_traitsIcESaIcEEERKT_RKT0_PKc(ptr noundef nonnull align 4 dereferenceable(4) %25, ptr noundef nonnull align 4 dereferenceable(4) %26, ptr noundef @.str.6)
  call void @_ZN6google13CheckOpStringC2EPNSt7__cxx1112basic_stringIcSt11char_traitsIcESaIcEEE(ptr noundef nonnull align 8 dereferenceable(8) %5, ptr noundef %27)
  %28 = call noundef zeroext i1 @_ZNK6google13CheckOpStringcvbEv(ptr noundef nonnull align 8 dereferenceable(8) %5)
  br i1 %28, label %29, label %37

29:                                               ; preds = %17
  call void @_ZN6google15LogMessageFatalC1EPKciRKNS_13CheckOpStringE(ptr noundef nonnull align 8 dereferenceable(96) %8, ptr noundef @.str.3, i32 noundef 91, ptr noundef nonnull align 8 dereferenceable(8) %5)
  %30 = invoke noundef nonnull align 8 dereferenceable(8) ptr @_ZN6google10LogMessage6streamEv(ptr noundef nonnull align 8 dereferenceable(96) %8)
          to label %31 unwind label %32

31:                                               ; preds = %29
  call void @_ZN6google15LogMessageFatalD1Ev(ptr noundef nonnull align 8 dereferenceable(96) %8) #8
  unreachable

32:                                               ; preds = %29
  %33 = landingpad { ptr, i32 }
          cleanup
  %34 = extractvalue { ptr, i32 } %33, 0
  store ptr %34, ptr %9, align 8
  %35 = extractvalue { ptr, i32 } %33, 1
  store i32 %35, ptr %10, align 4
  call void @_ZN6google15LogMessageFatalD1Ev(ptr noundef nonnull align 8 dereferenceable(96) %8) #8
  unreachable

36:                                               ; No predecessors!
  br label %38

37:                                               ; preds = %17
  ret void

38:                                               ; preds = %36
  %39 = load ptr, ptr %9, align 8
  %40 = load i32, ptr %10, align 4
  %41 = insertvalue { ptr, i32 } poison, ptr %39, 0
  %42 = insertvalue { ptr, i32 } %41, i32 %40, 1
  resume { ptr, i32 } %42
}