; Function Attrs: mustprogress uwtable
define hidden void @_ZN5ceres8internal10CudaVector6ResizeEi(ptr noundef nonnull align 8 dereferenceable(48) %0, i32 noundef %1) local_unnamed_addr #0 align 2 personality ptr @__gxx_personality_v0 {
  %3 = alloca %"class.google::base::CheckOpMessageBuilder", align 8
  %4 = alloca %"struct.google::CheckOpString", align 8
  %5 = alloca %"class.google::LogMessageFatal", align 8
  %6 = getelementptr inbounds i8, ptr %0, i64 16
  %7 = sext i32 %1 to i64
  tail call void @_ZN5ceres8internal10CudaBufferIdE7ReserveEm(ptr noundef nonnull align 8 dereferenceable(24) %6, i64 noundef %7)
  store i32 %1, ptr %0, align 8
  tail call void @_ZN5ceres8internal10CudaVector17DestroyDescriptorEv(ptr noundef nonnull align 8 dereferenceable(48) %0)
  %8 = getelementptr inbounds i8, ptr %0, i64 40
  %9 = load i32, ptr %0, align 8
  %10 = sext i32 %9 to i64
  %11 = load ptr, ptr %6, align 8
  %12 = tail call i32 @cusparseCreateDnVec(ptr noundef nonnull %8, i64 noundef %10, ptr noundef %11, i32 noundef 1)
  %13 = icmp eq i32 %12, 0
  br i1 %13, label %_ZN6google12Check_EQImplI16cusparseStatus_tS1_EEPNSt7__cxx1112basic_stringIcSt11char_traitsIcESaIcEEERKT_RKT0_PKc.exit.thread, label %14

14:                                               ; preds = %2
  call void @llvm.lifetime.start.p0(i64 8, ptr nonnull %3)
  call void @_ZN6google4base21CheckOpMessageBuilderC1EPKc(ptr noundef nonnull align 8 dereferenceable(8) %3, ptr noundef nonnull @.str.6)
  %15 = load ptr, ptr %3, align 8
  %16 = invoke noundef nonnull align 8 dereferenceable(8) ptr @_ZNSolsEi(ptr noundef nonnull align 8 dereferenceable(8) %15, i32 noundef %12)
          to label %_ZN6google22MakeCheckOpValueStringI16cusparseStatus_tEEvPSoRKT_.exit.i.i unwind label %21

_ZN6google22MakeCheckOpValueStringI16cusparseStatus_tEEvPSoRKT_.exit.i.i: ; preds = %14
  %17 = invoke noundef ptr @_ZN6google4base21CheckOpMessageBuilder7ForVar2Ev(ptr noundef nonnull align 8 dereferenceable(8) %3)
          to label %18 unwind label %21

18:                                               ; preds = %_ZN6google22MakeCheckOpValueStringI16cusparseStatus_tEEvPSoRKT_.exit.i.i
  %19 = invoke noundef nonnull align 8 dereferenceable(8) ptr @_ZNSolsEi(ptr noundef nonnull align 8 dereferenceable(8) %17, i32 noundef 0)
          to label %_ZN6google22MakeCheckOpValueStringI16cusparseStatus_tEEvPSoRKT_.exit4.i.i unwind label %21

_ZN6google22MakeCheckOpValueStringI16cusparseStatus_tEEvPSoRKT_.exit4.i.i: ; preds = %18
  %20 = invoke noundef ptr @_ZN6google4base21CheckOpMessageBuilder9NewStringB5cxx11Ev(ptr noundef nonnull align 8 dereferenceable(8) %3)
          to label %_ZN6google12Check_EQImplI16cusparseStatus_tS1_EEPNSt7__cxx1112basic_stringIcSt11char_traitsIcESaIcEEERKT_RKT0_PKc.exit unwind label %21

21:                                               ; preds = %_ZN6google22MakeCheckOpValueStringI16cusparseStatus_tEEvPSoRKT_.exit4.i.i, %18, %_ZN6google22MakeCheckOpValueStringI16cusparseStatus_tEEvPSoRKT_.exit.i.i, %14
  %22 = landingpad { ptr, i32 }
          cleanup
  call void @_ZN6google4base21CheckOpMessageBuilderD1Ev(ptr noundef nonnull align 8 dereferenceable(8) %3) #11
  resume { ptr, i32 } %22

_ZN6google12Check_EQImplI16cusparseStatus_tS1_EEPNSt7__cxx1112basic_stringIcSt11char_traitsIcESaIcEEERKT_RKT0_PKc.exit: ; preds = %_ZN6google22MakeCheckOpValueStringI16cusparseStatus_tEEvPSoRKT_.exit4.i.i
  call void @_ZN6google4base21CheckOpMessageBuilderD1Ev(ptr noundef nonnull align 8 dereferenceable(8) %3) #11
  call void @llvm.lifetime.end.p0(i64 8, ptr nonnull %3)
  store ptr %20, ptr %4, align 8
  %.not = icmp eq ptr %20, null
  br i1 %.not, label %_ZN6google12Check_EQImplI16cusparseStatus_tS1_EEPNSt7__cxx1112basic_stringIcSt11char_traitsIcESaIcEEERKT_RKT0_PKc.exit.thread, label %23

23:                                               ; preds = %_ZN6google12Check_EQImplI16cusparseStatus_tS1_EEPNSt7__cxx1112basic_stringIcSt11char_traitsIcESaIcEEERKT_RKT0_PKc.exit
  call void @_ZN6google15LogMessageFatalC1EPKciRKNS_13CheckOpStringE(ptr noundef nonnull align 8 dereferenceable(96) %5, ptr noundef nonnull @.str.3, i32 noundef 91, ptr noundef nonnull align 8 dereferenceable(8) %4)
  %24 = invoke noundef nonnull align 8 dereferenceable(8) ptr @_ZN6google10LogMessage6streamEv(ptr noundef nonnull align 8 dereferenceable(96) %5)
          to label %25 unwind label %26

25:                                               ; preds = %23
  call void @_ZN6google15LogMessageFatalD1Ev(ptr noundef nonnull align 8 dereferenceable(96) %5) #12
  unreachable

26:                                               ; preds = %23
  %27 = landingpad { ptr, i32 }
          cleanup
  call void @_ZN6google15LogMessageFatalD1Ev(ptr noundef nonnull align 8 dereferenceable(96) %5) #12
  unreachable

_ZN6google12Check_EQImplI16cusparseStatus_tS1_EEPNSt7__cxx1112basic_stringIcSt11char_traitsIcESaIcEEERKT_RKT0_PKc.exit.thread: ; preds = %2, %_ZN6google12Check_EQImplI16cusparseStatus_tS1_EEPNSt7__cxx1112basic_stringIcSt11char_traitsIcESaIcEEERKT_RKT0_PKc.exit
  ret void
}